; Function Attrs: mustprogress nofree norecurse nosync nounwind willreturn memory(read, argmem: readwrite, inaccessiblemem: none) uwtable
define internal noundef i32 @config_output_video(ptr noundef captures(none) %0) #4 {
  %2 = load ptr, ptr %0, align 8, !tbaa !59
  %3 = getelementptr inbounds nuw i8, ptr %2, i64 72
  %4 = load ptr, ptr %3, align 8, !tbaa !4
  %5 = getelementptr inbounds nuw i8, ptr %4, i64 24
  %6 = load i32, ptr %5, align 8, !tbaa !60
  %.not = icmp eq i32 %6, 0
  br i1 %.not, label %9, label %7

7:                                                ; preds = %1
  %8 = getelementptr inbounds nuw i8, ptr %0, i64 264
  store i32 1, ptr %8, align 8, !tbaa !54
  %.sroa.2.0..sroa_idx = getelementptr inbounds nuw i8, ptr %0, i64 268
  store i32 0, ptr %.sroa.2.0..sroa_idx, align 4, !tbaa !54
  br label %9

9:                                                ; preds = %7, %1
  ret i32 0
}